
Memory Configuration

Name             Origin             Length             Attributes
SRAM             0x20000000         0x00018000         xrw
FLASH            0x08000000         0x00080000         xr
*default*        0x00000000         0xffffffff

Linker script and memory map

LOAD _gen/obj/bsw/mcal/kx_systick/kx_systick/systick.o
LOAD _gen/obj/bsw/mcal/kx_systick/kx_gpio/gpio.o
LOAD _gen/obj/bsw/mcal/kx_systick/kx_regs/cortex_m4.o
LOAD _gen/obj/bsw/mcal/kx_gpio/gpio.o
LOAD _gen/obj/bsw/mcal/kx_regs/cortex_m4.o
LOAD _gen/obj/bsw/sys/startup_STM32F4.o
LOAD _gen/obj/bsw/sys/main.o
LOAD _gen/obj/conf/cfg_mcal/cfg_gpio/cfg_gpio.o
LOAD _gen/obj/conf/cfg_mcal/cfg_systick/cfg_systick.o
                0x20018000                        _estack = (ORIGIN (SRAM) + LENGTH (SRAM))

.vector_table   0x08000000      0x194
                0x08000000                        . = ALIGN (0x4)
 *(.vector_table)
 .vector_table  0x08000000      0x194 _gen/obj/bsw/sys/startup_STM32F4.o
                0x08000000                vt_ptr
                0x08000194                        . = ALIGN (0x4)

.text           0x08000194      0x5a4
                0x08000194                        . = ALIGN (0x4)
 *(.text)
 .text          0x08000194      0x104 _gen/obj/bsw/mcal/kx_systick/kx_systick/systick.o
                0x08000194                systick_init
                0x08000224                SysTick_Callback_Channel0
                0x08000234                SysTick_SetCallback
                0x0800025c                Systick_handler
 .text          0x08000298      0x1a8 _gen/obj/bsw/mcal/kx_systick/kx_gpio/gpio.o
                0x08000298                gpio_init
                0x08000370                gpio_write
                0x080003d4                gpio_toggle
                0x08000414                gpio_read
 .text          0x08000440       0x34 _gen/obj/bsw/mcal/kx_systick/kx_regs/cortex_m4.o
                0x08000440                global_enable_IRQ
                0x0800045a                global_disable_IRQ
 .text          0x08000474      0x1a8 _gen/obj/bsw/mcal/kx_gpio/gpio.o
 .text          0x0800061c       0x34 _gen/obj/bsw/mcal/kx_regs/cortex_m4.o
 .text          0x08000650       0x68 _gen/obj/bsw/sys/startup_STM32F4.o
                0x08000650                Reset_handler
                0x080006b0                UART2_handler
                0x080006b0                EXTI15_10_handler
                0x080006b0                DMA1_Stream7_handler
                0x080006b0                UART1_handler
                0x080006b0                TIM1_UP_TIM10_handler
                0x080006b0                EXTI0_handler
                0x080006b0                DMA1_Stream1_handler
                0x080006b0                SDIO_handler
                0x080006b0                NMI_handler
                0x080006b0                DMA2_Stream3_handler
                0x080006b0                TIM2_handler
                0x080006b0                SPI3_handler
                0x080006b0                TIM3_handler
                0x080006b0                WWDG_handler
                0x080006b0                UART6_handler
                0x080006b0                SPI2_handler
                0x080006b0                UsuageFault_handler
                0x080006b0                SVCall_handler
                0x080006b0                DMA2_Stream6_handler
                0x080006b0                DebugMonitor_handler
                0x080006b0                I2C3_ER_handler
                0x080006b0                DMA1_Stream3_handler
                0x080006b0                MemManage_handler
                0x080006b0                SPI4_handler
                0x080006b0                HardFault_handler
                0x080006b0                DMA1_Stream5_handler
                0x080006b0                FPU_handler
                0x080006b0                DMA2_Stream5_handler
                0x080006b0                EXITI21_TAMP_STAMP_handler
                0x080006b0                EXTI18_OTG_FS_WKUP_handler
                0x080006b0                RCC_handler
                0x080006b0                EXTI2_handler
                0x080006b0                DMA2_Stream1_handler
                0x080006b0                I2C1_ER_handler
                0x080006b0                EXTI9_5__handler
                0x080006b0                EXTI17_RTC_Alarm_handler
                0x080006b0                I2C2_EV_handler
                0x080006b0                EXITI22_RTC_WKUP_handler
                0x080006b0                EXTI3_handler
                0x080006b0                DMA2_Stream0_handler
                0x080006b0                FLASH_handler
                0x080006b0                OTG_FS_handler
                0x080006b0                DMA1_Stream4_handler
                0x080006b0                I2C2_ER_handler
                0x080006b0                TIM1_BRK_TIM9_handler
                0x080006b0                TIM4_handler
                0x080006b0                DMA1_Stream2_handler
                0x080006b0                EXTI4_handler
                0x080006b0                DMA1_Stream6_handler
                0x080006b0                ADC_handler
                0x080006b0                I2C1_EV_handler
                0x080006b0                SPI1_handler
                0x080006b0                DMA2_Stream4_handler
                0x080006b0                PendSV_handler
                0x080006b0                DMA2_Stream7_handler
                0x080006b0                DMA1_Stream0_handler
                0x080006b0                DMA2_Stream2_handler
                0x080006b0                EXTI1_handler
                0x080006b0                TIM1_TRG_COM_TIM11_handler
                0x080006b0                TIM5_handler
                0x080006b0                EXITI16_PVD__handler
                0x080006b0                I2C3_EV_handler
                0x080006b0                BusFault_handler
                0x080006b0                TIM1_CC_handler
                0x080006b0                Default_handler
 .text          0x080006b8       0x64 _gen/obj/bsw/sys/main.o
                0x080006b8                wait_ms
                0x080006f4                main
 .text          0x0800071c        0x0 _gen/obj/conf/cfg_mcal/cfg_gpio/cfg_gpio.o
 .text          0x0800071c        0x0 _gen/obj/conf/cfg_mcal/cfg_systick/cfg_systick.o
 *(.text.*)
 *(.rodata)
 .rodata        0x0800071c       0x11 _gen/obj/conf/cfg_mcal/cfg_gpio/cfg_gpio.o
                0x0800071c                GpioPorts
                0x08000728                GpioConfig
                0x0800072c                GpioConfigCount
 *fill*         0x0800072d        0x3 
 .rodata        0x08000730        0x8 _gen/obj/conf/cfg_mcal/cfg_systick/cfg_systick.o
                0x08000730                SysTickConfig
 *(.rodata.*)
                0x08000738                        . = ALIGN (0x4)
                0x08000738                        _sidata = LOADADDR (.data)

.glue_7         0x08000738        0x0
 .glue_7        0x08000738        0x0 linker stubs

.glue_7t        0x08000738        0x0
 .glue_7t       0x08000738        0x0 linker stubs

.vfp11_veneer   0x08000738        0x0
 .vfp11_veneer  0x08000738        0x0 linker stubs

.v4_bx          0x08000738        0x0
 .v4_bx         0x08000738        0x0 linker stubs

.iplt           0x08000738        0x0
 .iplt          0x08000738        0x0 _gen/obj/bsw/mcal/kx_systick/kx_systick/systick.o

.rel.dyn        0x08000738        0x0
 .rel.iplt      0x08000738        0x0 _gen/obj/bsw/mcal/kx_systick/kx_systick/systick.o

.data           0x20000000        0x0 load address 0x08000738
                0x20000000                        . = ALIGN (0x4)
                0x20000000                        _sdata = .
 *(.data)
 .data          0x20000000        0x0 _gen/obj/bsw/mcal/kx_systick/kx_systick/systick.o
 .data          0x20000000        0x0 _gen/obj/bsw/mcal/kx_systick/kx_gpio/gpio.o
 .data          0x20000000        0x0 _gen/obj/bsw/mcal/kx_systick/kx_regs/cortex_m4.o
 .data          0x20000000        0x0 _gen/obj/bsw/mcal/kx_gpio/gpio.o
 .data          0x20000000        0x0 _gen/obj/bsw/mcal/kx_regs/cortex_m4.o
 .data          0x20000000        0x0 _gen/obj/bsw/sys/startup_STM32F4.o
 .data          0x20000000        0x0 _gen/obj/bsw/sys/main.o
 .data          0x20000000        0x0 _gen/obj/conf/cfg_mcal/cfg_gpio/cfg_gpio.o
 .data          0x20000000        0x0 _gen/obj/conf/cfg_mcal/cfg_systick/cfg_systick.o
 *(.data.*)
                0x20000000                        _edata = .
                0x20000000                        . = ALIGN (0x4)

.igot.plt       0x20000000        0x0 load address 0x08000738
 .igot.plt      0x20000000        0x0 _gen/obj/bsw/mcal/kx_systick/kx_systick/systick.o

.bss            0x20000000        0x4 load address 0x08000738
                0x20000000                        . = ALIGN (0x4)
                0x20000000                        _sbss = .
 *(.bss)
 .bss           0x20000000        0x4 _gen/obj/bsw/mcal/kx_systick/kx_systick/systick.o
 .bss           0x20000004        0x0 _gen/obj/bsw/mcal/kx_systick/kx_gpio/gpio.o
 .bss           0x20000004        0x0 _gen/obj/bsw/mcal/kx_systick/kx_regs/cortex_m4.o
 .bss           0x20000004        0x0 _gen/obj/bsw/mcal/kx_gpio/gpio.o
 .bss           0x20000004        0x0 _gen/obj/bsw/mcal/kx_regs/cortex_m4.o
 .bss           0x20000004        0x0 _gen/obj/bsw/sys/startup_STM32F4.o
 .bss           0x20000004        0x0 _gen/obj/bsw/sys/main.o
 .bss           0x20000004        0x0 _gen/obj/conf/cfg_mcal/cfg_gpio/cfg_gpio.o
 .bss           0x20000004        0x0 _gen/obj/conf/cfg_mcal/cfg_systick/cfg_systick.o
 *(.bss.*)
                0x20000004                        . = ALIGN (0x4)
                0x20000004                        _ebss = .
OUTPUT(_gen/main.elf elf32-littlearm)
LOAD linker stubs

.debug_info     0x00000000     0x13df
 .debug_info    0x00000000      0x27a _gen/obj/bsw/mcal/kx_systick/kx_systick/systick.o
 .debug_info    0x0000027a      0x43d _gen/obj/bsw/mcal/kx_systick/kx_gpio/gpio.o
 .debug_info    0x000006b7       0xbd _gen/obj/bsw/mcal/kx_systick/kx_regs/cortex_m4.o
 .debug_info    0x00000774      0x43d _gen/obj/bsw/mcal/kx_gpio/gpio.o
 .debug_info    0x00000bb1       0xbd _gen/obj/bsw/mcal/kx_regs/cortex_m4.o
 .debug_info    0x00000c6e      0x162 _gen/obj/bsw/sys/startup_STM32F4.o
 .debug_info    0x00000dd0      0x282 _gen/obj/bsw/sys/main.o
 .debug_info    0x00001052      0x27d _gen/obj/conf/cfg_mcal/cfg_gpio/cfg_gpio.o
 .debug_info    0x000012cf      0x110 _gen/obj/conf/cfg_mcal/cfg_systick/cfg_systick.o

.debug_abbrev   0x00000000      0x9a2
 .debug_abbrev  0x00000000      0x169 _gen/obj/bsw/mcal/kx_systick/kx_systick/systick.o
 .debug_abbrev  0x00000169      0x18c _gen/obj/bsw/mcal/kx_systick/kx_gpio/gpio.o
 .debug_abbrev  0x000002f5       0x80 _gen/obj/bsw/mcal/kx_systick/kx_regs/cortex_m4.o
 .debug_abbrev  0x00000375      0x18c _gen/obj/bsw/mcal/kx_gpio/gpio.o
 .debug_abbrev  0x00000501       0x80 _gen/obj/bsw/mcal/kx_regs/cortex_m4.o
 .debug_abbrev  0x00000581      0x10a _gen/obj/bsw/sys/startup_STM32F4.o
 .debug_abbrev  0x0000068b      0x138 _gen/obj/bsw/sys/main.o
 .debug_abbrev  0x000007c3      0x140 _gen/obj/conf/cfg_mcal/cfg_gpio/cfg_gpio.o
 .debug_abbrev  0x00000903       0x9f _gen/obj/conf/cfg_mcal/cfg_systick/cfg_systick.o

.debug_aranges  0x00000000      0x110
 .debug_aranges
                0x00000000       0x20 _gen/obj/bsw/mcal/kx_systick/kx_systick/systick.o
 .debug_aranges
                0x00000020       0x20 _gen/obj/bsw/mcal/kx_systick/kx_gpio/gpio.o
 .debug_aranges
                0x00000040       0x20 _gen/obj/bsw/mcal/kx_systick/kx_regs/cortex_m4.o
 .debug_aranges
                0x00000060       0x20 _gen/obj/bsw/mcal/kx_gpio/gpio.o
 .debug_aranges
                0x00000080       0x20 _gen/obj/bsw/mcal/kx_regs/cortex_m4.o
 .debug_aranges
                0x000000a0       0x20 _gen/obj/bsw/sys/startup_STM32F4.o
 .debug_aranges
                0x000000c0       0x20 _gen/obj/bsw/sys/main.o
 .debug_aranges
                0x000000e0       0x18 _gen/obj/conf/cfg_mcal/cfg_gpio/cfg_gpio.o
 .debug_aranges
                0x000000f8       0x18 _gen/obj/conf/cfg_mcal/cfg_systick/cfg_systick.o

.debug_line     0x00000000      0xac6
 .debug_line    0x00000000      0x1cf _gen/obj/bsw/mcal/kx_systick/kx_systick/systick.o
 .debug_line    0x000001cf      0x22c _gen/obj/bsw/mcal/kx_systick/kx_gpio/gpio.o
 .debug_line    0x000003fb       0xa2 _gen/obj/bsw/mcal/kx_systick/kx_regs/cortex_m4.o
 .debug_line    0x0000049d      0x221 _gen/obj/bsw/mcal/kx_gpio/gpio.o
 .debug_line    0x000006be       0x97 _gen/obj/bsw/mcal/kx_regs/cortex_m4.o
 .debug_line    0x00000755       0xd3 _gen/obj/bsw/sys/startup_STM32F4.o
 .debug_line    0x00000828      0x155 _gen/obj/bsw/sys/main.o
 .debug_line    0x0000097d       0xba _gen/obj/conf/cfg_mcal/cfg_gpio/cfg_gpio.o
 .debug_line    0x00000a37       0x8f _gen/obj/conf/cfg_mcal/cfg_systick/cfg_systick.o

.debug_str      0x00000000      0x661
 .debug_str     0x00000000      0x2e1 _gen/obj/bsw/mcal/kx_systick/kx_systick/systick.o
                                0x315 (size before relaxing)
 .debug_str     0x000002e1      0x219 _gen/obj/bsw/mcal/kx_systick/kx_gpio/gpio.o
                                0x35b (size before relaxing)
 .debug_str     0x000004fa       0x30 _gen/obj/bsw/mcal/kx_systick/kx_regs/cortex_m4.o
                                0x177 (size before relaxing)
 .debug_str     0x0000052a       0x18 _gen/obj/bsw/mcal/kx_gpio/gpio.o
                                0x350 (size before relaxing)
 .debug_str     0x00000542       0x1d _gen/obj/bsw/mcal/kx_regs/cortex_m4.o
                                0x16c (size before relaxing)
 .debug_str     0x0000055f       0x73 _gen/obj/bsw/sys/startup_STM32F4.o
                                0x195 (size before relaxing)
 .debug_str     0x000005d2       0x45 _gen/obj/bsw/sys/main.o
                                0x2c9 (size before relaxing)
 .debug_str     0x00000617       0x22 _gen/obj/conf/cfg_mcal/cfg_gpio/cfg_gpio.o
                                0x273 (size before relaxing)
 .debug_str     0x00000639       0x28 _gen/obj/conf/cfg_mcal/cfg_systick/cfg_systick.o
                                0x1f4 (size before relaxing)

.comment        0x00000000       0x26
 .comment       0x00000000       0x26 _gen/obj/bsw/mcal/kx_systick/kx_systick/systick.o
                                 0x27 (size before relaxing)
 .comment       0x00000026       0x27 _gen/obj/bsw/mcal/kx_systick/kx_gpio/gpio.o
 .comment       0x00000026       0x27 _gen/obj/bsw/mcal/kx_systick/kx_regs/cortex_m4.o
 .comment       0x00000026       0x27 _gen/obj/bsw/mcal/kx_gpio/gpio.o
 .comment       0x00000026       0x27 _gen/obj/bsw/mcal/kx_regs/cortex_m4.o
 .comment       0x00000026       0x27 _gen/obj/bsw/sys/startup_STM32F4.o
 .comment       0x00000026       0x27 _gen/obj/bsw/sys/main.o
 .comment       0x00000026       0x27 _gen/obj/conf/cfg_mcal/cfg_gpio/cfg_gpio.o
 .comment       0x00000026       0x27 _gen/obj/conf/cfg_mcal/cfg_systick/cfg_systick.o

.ARM.attributes
                0x00000000       0x2e
 .ARM.attributes
                0x00000000       0x2e _gen/obj/bsw/mcal/kx_systick/kx_systick/systick.o
 .ARM.attributes
                0x0000002e       0x2e _gen/obj/bsw/mcal/kx_systick/kx_gpio/gpio.o
 .ARM.attributes
                0x0000005c       0x2e _gen/obj/bsw/mcal/kx_systick/kx_regs/cortex_m4.o
 .ARM.attributes
                0x0000008a       0x2e _gen/obj/bsw/mcal/kx_gpio/gpio.o
 .ARM.attributes
                0x000000b8       0x2e _gen/obj/bsw/mcal/kx_regs/cortex_m4.o
 .ARM.attributes
                0x000000e6       0x2e _gen/obj/bsw/sys/startup_STM32F4.o
 .ARM.attributes
                0x00000114       0x2e _gen/obj/bsw/sys/main.o
 .ARM.attributes
                0x00000142       0x2e _gen/obj/conf/cfg_mcal/cfg_gpio/cfg_gpio.o
 .ARM.attributes
                0x00000170       0x2e _gen/obj/conf/cfg_mcal/cfg_systick/cfg_systick.o

.debug_frame    0x00000000      0x35c
 .debug_frame   0x00000000       0x9c _gen/obj/bsw/mcal/kx_systick/kx_systick/systick.o
 .debug_frame   0x0000009c       0xb0 _gen/obj/bsw/mcal/kx_systick/kx_gpio/gpio.o
 .debug_frame   0x0000014c       0x60 _gen/obj/bsw/mcal/kx_systick/kx_regs/cortex_m4.o
 .debug_frame   0x000001ac       0xb0 _gen/obj/bsw/mcal/kx_gpio/gpio.o
 .debug_frame   0x0000025c       0x60 _gen/obj/bsw/mcal/kx_regs/cortex_m4.o
 .debug_frame   0x000002bc       0x4c _gen/obj/bsw/sys/startup_STM32F4.o
 .debug_frame   0x00000308       0x54 _gen/obj/bsw/sys/main.o
